; Function Attrs: mustprogress nounwind uwtable
define dso_local noundef range(i32 1, 3) i32 @_ZN4llvm15LegalizerHelper17lowerStackRestoreERNS_12MachineInstrE(ptr nocapture noundef nonnull readonly align 8 dereferenceable(48) %0, ptr noundef nonnull align 8 dereferenceable(70) %1) local_unnamed_addr #0 align 2 {
  %3 = alloca %"class.llvm::DstOp", align 8
  %4 = alloca %"class.llvm::SrcOp", align 8
  %5 = getelementptr inbounds nuw i8, ptr %0, i64 32
  %6 = load ptr, ptr %5, align 8
  %7 = getelementptr inbounds nuw i8, ptr %6, i64 96
  %.sroa.0.0.copyload.i = load i32, ptr %7, align 8
  %.not = icmp eq i32 %.sroa.0.0.copyload.i, 0
  br i1 %.not, label %17, label %8

8:                                                ; preds = %2
  %9 = load ptr, ptr %0, align 8
  store i32 %.sroa.0.0.copyload.i, ptr %3, align 8
  %10 = getelementptr inbounds nuw i8, ptr %3, i64 8
  store i32 1, ptr %10, align 8
  %11 = getelementptr inbounds nuw i8, ptr %1, i64 32
  %12 = load ptr, ptr %11, align 8
  %13 = getelementptr inbounds nuw i8, ptr %12, i64 4
  %14 = load i32, ptr %13, align 4
  store i32 %14, ptr %4, align 8
  %15 = getelementptr inbounds nuw i8, ptr %4, i64 16
  store i32 0, ptr %15, align 8
  %16 = call { ptr, ptr } @_ZN4llvm16MachineIRBuilder9buildCopyERKNS_5DstOpERKNS_5SrcOpE(ptr noundef nonnull align 8 dereferenceable(88) %9, ptr noundef nonnull align 8 dereferenceable(12) %3, ptr noundef nonnull align 8 dereferenceable(20) %4) #18
  call void @_ZN4llvm12MachineInstr15eraseFromParentEv(ptr noundef nonnull align 8 dereferenceable(70) %1) #18
  br label %17

17:                                               ; preds = %2, %8
  %.0 = phi i32 [ 1, %8 ], [ 2, %2 ]
  ret i32 %.0
}